; Function Attrs: mustprogress norecurse uwtable
define internal fastcc void @_ZL4helpPPKc(ptr noundef readonly captures(none) %0) unnamed_addr #4 {
  %2 = tail call noundef nonnull align 8 dereferenceable(8) ptr @_ZSt16__ostream_insertIcSt11char_traitsIcEERSt13basic_ostreamIT_T0_ES6_PKS3_l(ptr noundef nonnull align 8 dereferenceable(8) @_ZSt4cout, ptr noundef nonnull @.str.18, i64 noundef 54)
  %3 = load ptr, ptr %0, align 8, !tbaa !51
  %.not.i = icmp eq ptr %3, null
  br i1 %.not.i, label %4, label %12

4:                                                ; preds = %1
  %5 = load ptr, ptr @_ZSt4cout, align 8, !tbaa !27
  %6 = getelementptr i8, ptr %5, i64 -24
  %7 = load i64, ptr %6, align 8
  %8 = getelementptr inbounds i8, ptr @_ZSt4cout, i64 %7
  %9 = getelementptr inbounds nuw i8, ptr %8, i64 32
  %10 = load i32, ptr %9, align 8, !tbaa !52
  %11 = or i32 %10, 1
  tail call void @_ZNSt9basic_iosIcSt11char_traitsIcEE5clearESt12_Ios_Iostate(ptr noundef nonnull align 8 dereferenceable(264) %8, i32 noundef %11)
  br label %_ZStlsISt11char_traitsIcEERSt13basic_ostreamIcT_ES5_PKc.exit

12:                                               ; preds = %1
  %13 = tail call noundef i64 @strlen(ptr noundef nonnull dereferenceable(1) %3) #19
  %14 = tail call noundef nonnull align 8 dereferenceable(8) ptr @_ZSt16__ostream_insertIcSt11char_traitsIcEERSt13basic_ostreamIT_T0_ES6_PKS3_l(ptr noundef nonnull align 8 dereferenceable(8) @_ZSt4cout, ptr noundef nonnull %3, i64 noundef %13)
  br label %_ZStlsISt11char_traitsIcEERSt13basic_ostreamIcT_ES5_PKc.exit

_ZStlsISt11char_traitsIcEERSt13basic_ostreamIcT_ES5_PKc.exit: ; preds = %4, %12
  %15 = tail call noundef nonnull align 8 dereferenceable(8) ptr @_ZSt16__ostream_insertIcSt11char_traitsIcEERSt13basic_ostreamIT_T0_ES6_PKS3_l(ptr noundef nonnull align 8 dereferenceable(8) @_ZSt4cout, ptr noundef nonnull @.str.19, i64 noundef 275)
  %16 = load ptr, ptr %0, align 8, !tbaa !51
  %.not.i2 = icmp eq ptr %16, null
  br i1 %.not.i2, label %17, label %25

17:                                               ; preds = %_ZStlsISt11char_traitsIcEERSt13basic_ostreamIcT_ES5_PKc.exit
  %18 = load ptr, ptr @_ZSt4cout, align 8, !tbaa !27
  %19 = getelementptr i8, ptr %18, i64 -24
  %20 = load i64, ptr %19, align 8
  %21 = getelementptr inbounds i8, ptr @_ZSt4cout, i64 %20
  %22 = getelementptr inbounds nuw i8, ptr %21, i64 32
  %23 = load i32, ptr %22, align 8, !tbaa !52
  %24 = or i32 %23, 1
  tail call void @_ZNSt9basic_iosIcSt11char_traitsIcEE5clearESt12_Ios_Iostate(ptr noundef nonnull align 8 dereferenceable(264) %21, i32 noundef %24)
  br label %_ZStlsISt11char_traitsIcEERSt13basic_ostreamIcT_ES5_PKc.exit3

25:                                               ; preds = %_ZStlsISt11char_traitsIcEERSt13basic_ostreamIcT_ES5_PKc.exit
  %26 = tail call noundef i64 @strlen(ptr noundef nonnull dereferenceable(1) %16) #19
  %27 = tail call noundef nonnull align 8 dereferenceable(8) ptr @_ZSt16__ostream_insertIcSt11char_traitsIcEERSt13basic_ostreamIT_T0_ES6_PKS3_l(ptr noundef nonnull align 8 dereferenceable(8) @_ZSt4cout, ptr noundef nonnull %16, i64 noundef %26)
  br label %_ZStlsISt11char_traitsIcEERSt13basic_ostreamIcT_ES5_PKc.exit3

_ZStlsISt11char_traitsIcEERSt13basic_ostreamIcT_ES5_PKc.exit3: ; preds = %17, %25
  %28 = tail call noundef nonnull align 8 dereferenceable(8) ptr @_ZSt16__ostream_insertIcSt11char_traitsIcEERSt13basic_ostreamIT_T0_ES6_PKS3_l(ptr noundef nonnull align 8 dereferenceable(8) @_ZSt4cout, ptr noundef nonnull @.str.20, i64 noundef 196)
  %29 = tail call noundef nonnull align 8 dereferenceable(8) ptr @_ZSt16__ostream_insertIcSt11char_traitsIcEERSt13basic_ostreamIT_T0_ES6_PKS3_l(ptr noundef nonnull align 8 dereferenceable(8) @_ZSt4cout, ptr noundef nonnull @.str.21, i64 noundef 10)
  %30 = tail call noundef nonnull align 8 dereferenceable(8) ptr @_ZSt16__ostream_insertIcSt11char_traitsIcEERSt13basic_ostreamIT_T0_ES6_PKS3_l(ptr noundef nonnull align 8 dereferenceable(8) @_ZSt4cout, ptr noundef nonnull @.str.22, i64 noundef 1)
  %31 = load ptr, ptr @_ZSt4cout, align 8, !tbaa !27
  %32 = getelementptr i8, ptr %31, i64 -24
  %33 = load i64, ptr %32, align 8
  %34 = getelementptr inbounds i8, ptr @_ZSt4cout, i64 %33
  %35 = getelementptr inbounds nuw i8, ptr %34, i64 240
  %36 = load ptr, ptr %35, align 8, !tbaa !29
  %.not.i.i.i = icmp eq ptr %36, null
  br i1 %.not.i.i.i, label %37, label %_ZSt13__check_facetISt5ctypeIcEERKT_PS3_.exit.i.i

37:                                               ; preds = %_ZStlsISt11char_traitsIcEERSt13basic_ostreamIcT_ES5_PKc.exit3
  tail call void @_ZSt16__throw_bad_castv() #21
  unreachable

_ZSt13__check_facetISt5ctypeIcEERKT_PS3_.exit.i.i: ; preds = %_ZStlsISt11char_traitsIcEERSt13basic_ostreamIcT_ES5_PKc.exit3
  %38 = getelementptr inbounds nuw i8, ptr %36, i64 56
  %39 = load i8, ptr %38, align 8, !tbaa !45
  %.not.i1.i.i = icmp eq i8 %39, 0
  br i1 %.not.i1.i.i, label %43, label %40

40:                                               ; preds = %_ZSt13__check_facetISt5ctypeIcEERKT_PS3_.exit.i.i
  %41 = getelementptr inbounds nuw i8, ptr %36, i64 67
  %42 = load i8, ptr %41, align 1, !tbaa !13
  br label %_ZSt4endlIcSt11char_traitsIcEERSt13basic_ostreamIT_T0_ES6_.exit

43:                                               ; preds = %_ZSt13__check_facetISt5ctypeIcEERKT_PS3_.exit.i.i
  tail call void @_ZNKSt5ctypeIcE13_M_widen_initEv(ptr noundef nonnull align 8 dereferenceable(570) %36)
  %44 = load ptr, ptr %36, align 8, !tbaa !27
  %45 = getelementptr inbounds nuw i8, ptr %44, i64 48
  %46 = load ptr, ptr %45, align 8
  %47 = tail call noundef signext i8 %46(ptr noundef nonnull align 8 dereferenceable(570) %36, i8 noundef signext 10)
  br label %_ZSt4endlIcSt11char_traitsIcEERSt13basic_ostreamIT_T0_ES6_.exit

_ZSt4endlIcSt11char_traitsIcEERSt13basic_ostreamIT_T0_ES6_.exit: ; preds = %40, %43
  %.0.i.i.i = phi i8 [ %42, %40 ], [ %47, %43 ]
  %48 = tail call noundef nonnull align 8 dereferenceable(8) ptr @_ZNSo3putEc(ptr noundef nonnull align 8 dereferenceable(8) @_ZSt4cout, i8 noundef signext %.0.i.i.i)
  %49 = tail call noundef nonnull align 8 dereferenceable(8) ptr @_ZNSo5flushEv(ptr noundef nonnull align 8 dereferenceable(8) %48)
  ret void
}